target datalayout = "e-m:e-p270:32:32-p271:32:32-p272:64:64-i64:64-i128:128-f80:128-n8:16:32:64-S128"
target triple = "x86_64-pc-linux-gnu"

%struct.LOCKTAG = type { i32, i32, i32, i16, i8, i8 }
%struct.TwoPhaseLockRecord = type { %struct.LOCKTAG, i32 }

@LockMethods = internal constant [3 x ptr] [ptr null, ptr @default_lockmethod, ptr @user_lockmethod], align 16
@.str.4 = private unnamed_addr constant [29 x i8] c"unrecognized lock method: %d\00", align 1
@.str.5 = private unnamed_addr constant [7 x i8] c"lock.c\00", align 1
@__func__.lock_twophase_postcommit = private unnamed_addr constant [25 x i8] c"lock_twophase_postcommit\00", align 1

; Function Attrs: nounwind uwtable
define dso_local void @lock_twophase_postcommit(i32 noundef %0, i16 noundef zeroext %1, ptr noundef %2, i32 noundef %3) #0 {
  %5 = alloca i32, align 4
  %6 = alloca i16, align 2
  %7 = alloca ptr, align 8
  %8 = alloca i32, align 4
  %9 = alloca ptr, align 8
  %10 = alloca ptr, align 8
  %11 = alloca ptr, align 8
  %12 = alloca i16, align 2
  %13 = alloca ptr, align 8
  store i32 %0, ptr %5, align 4
  store i16 %1, ptr %6, align 2
  store ptr %2, ptr %7, align 8
  store i32 %3, ptr %8, align 4
  call void @llvm.lifetime.start.p0(i64 8, ptr %9) #9
  %14 = load ptr, ptr %7, align 8
  store ptr %14, ptr %9, align 8
  call void @llvm.lifetime.start.p0(i64 8, ptr %10) #9
  %15 = load i32, ptr %5, align 4
  %16 = call ptr @TwoPhaseGetDummyProc(i32 noundef %15, i1 noundef zeroext true)
  store ptr %16, ptr %10, align 8
  call void @llvm.lifetime.start.p0(i64 8, ptr %11) #9
  call void @llvm.lifetime.start.p0(i64 2, ptr %12) #9
  call void @llvm.lifetime.start.p0(i64 8, ptr %13) #9
  %17 = load ptr, ptr %9, align 8
  %18 = getelementptr inbounds nuw %struct.TwoPhaseLockRecord, ptr %17, i32 0, i32 0
  store ptr %18, ptr %11, align 8
  %19 = load ptr, ptr %11, align 8
  %20 = getelementptr inbounds nuw %struct.LOCKTAG, ptr %19, i32 0, i32 5
  %21 = load i8, ptr %20, align 1
  %22 = zext i8 %21 to i16
  store i16 %22, ptr %12, align 2
  %23 = load i16, ptr %12, align 2
  %24 = zext i16 %23 to i32
  %25 = icmp sle i32 %24, 0
  br i1 %25, label %30, label %26

26:                                               ; preds = %4
  %27 = load i16, ptr %12, align 2
  %28 = zext i16 %27 to i64
  %29 = icmp uge i64 %28, 3
  br i1 %29, label %30, label %43

30:                                               ; preds = %26, %4
  br label %31

31:                                               ; preds = %30
  br i1 true, label %32, label %34

32:                                               ; preds = %31
  %33 = call zeroext i1 @errstart_cold(i32 noundef 21, ptr noundef null) #10
  br i1 %33, label %36, label %40

34:                                               ; preds = %31
  %35 = call zeroext i1 @errstart(i32 noundef 21, ptr noundef null)
  br i1 %35, label %36, label %40

36:                                               ; preds = %34, %32
  %37 = load i16, ptr %12, align 2
  %38 = zext i16 %37 to i32
  %39 = call i32 (ptr, ...) @errmsg_internal(ptr noundef @.str.4, i32 noundef %38)
  call void @errfinish(ptr noundef @.str.5, i32 noundef 4491, ptr noundef @__func__.lock_twophase_postcommit)
  br label %40

40:                                               ; preds = %36, %34, %32
  unreachable

41:                                               ; No predecessors!
  br label %42

42:                                               ; preds = %41
  br label %43

43:                                               ; preds = %42, %26
  %44 = load i16, ptr %12, align 2
  %45 = zext i16 %44 to i64
  %46 = getelementptr inbounds nuw [3 x ptr], ptr @LockMethods, i64 0, i64 %45
  %47 = load ptr, ptr %46, align 8
  store ptr %47, ptr %13, align 8
  %48 = load ptr, ptr %13, align 8
  %49 = load ptr, ptr %10, align 8
  %50 = load ptr, ptr %11, align 8
  %51 = load ptr, ptr %9, align 8
  %52 = getelementptr inbounds nuw %struct.TwoPhaseLockRecord, ptr %51, i32 0, i32 1
  %53 = load i32, ptr %52, align 4
  call void @LockRefindAndRelease(ptr noundef %48, ptr noundef %49, ptr noundef %50, i32 noundef %53, i1 noundef zeroext true)
  call void @llvm.lifetime.end.p0(i64 8, ptr %13) #9
  call void @llvm.lifetime.end.p0(i64 2, ptr %12) #9
  call void @llvm.lifetime.end.p0(i64 8, ptr %11) #9
  call void @llvm.lifetime.end.p0(i64 8, ptr %10) #9
  call void @llvm.lifetime.end.p0(i64 8, ptr %9) #9
  ret void
}

; Function Attrs: nounwind uwtable
define dso_local void @lock_twophase_postabort(i32 noundef %0, i16 noundef zeroext %1, ptr noundef %2, i32 noundef %3) #0 {
  %5 = alloca i32, align 4
  %6 = alloca i16, align 2
  %7 = alloca ptr, align 8
  %8 = alloca i32, align 4
  store i32 %0, ptr %5, align 4
  store i16 %1, ptr %6, align 2
  store ptr %2, ptr %7, align 8
  store i32 %3, ptr %8, align 4
  %9 = load i32, ptr %5, align 4
  %10 = load i16, ptr %6, align 2
  %11 = load ptr, ptr %7, align 8
  %12 = load i32, ptr %8, align 4
  call void @lock_twophase_postcommit(i32 noundef %9, i16 noundef zeroext %10, ptr noundef %11, i32 noundef %12)
  ret void
}