; Function Attrs: nounwind uwtable
define dso_local void @lock_twophase_postabort(i32 noundef %0, i16 noundef zeroext %1, ptr noundef %2, i32 noundef %3) local_unnamed_addr #0 {
  %5 = tail call ptr @TwoPhaseGetDummyProc(i32 noundef %0, i1 noundef zeroext true) #17
  %6 = getelementptr inbounds nuw i8, ptr %2, i64 15
  %7 = load i8, ptr %6, align 1
  %8 = add i8 %7, -3
  %or.cond.i = icmp ult i8 %8, -2
  br i1 %or.cond.i, label %9, label %lock_twophase_postcommit.exit

9:                                                ; preds = %4
  %10 = zext i8 %7 to i32
  %11 = tail call zeroext i1 @errstart_cold(i32 noundef 21, ptr noundef null) #18
  tail call void @llvm.assume(i1 %11)
  %12 = tail call i32 (ptr, ...) @errmsg_internal(ptr noundef nonnull @.str.4, i32 noundef %10) #17
  tail call void @errfinish(ptr noundef nonnull @.str.5, i32 noundef 4491, ptr noundef nonnull @__func__.lock_twophase_postcommit) #17
  unreachable

lock_twophase_postcommit.exit:                    ; preds = %4
  %13 = zext nneg i8 %7 to i64
  %14 = getelementptr inbounds nuw [3 x ptr], ptr @LockMethods, i64 0, i64 %13
  %15 = load ptr, ptr %14, align 8
  %16 = getelementptr inbounds nuw i8, ptr %2, i64 16
  %17 = load i32, ptr %16, align 4
  tail call fastcc void @LockRefindAndRelease(ptr noundef %15, ptr noundef %5, ptr noundef nonnull %2, i32 noundef %17, i1 noundef zeroext true)
  ret void
}